; Function Attrs: nounwind uwtable
define internal noalias ptr @file_attach(ptr noundef %0, ptr noundef %1) #0 {
  %3 = tail call ptr @ossl_bio_new_from_core_bio(ptr noundef %0, ptr noundef %1) #8
  %4 = icmp eq ptr %3, null
  br i1 %4, label %11, label %5

5:                                                ; preds = %2
  %6 = tail call noalias ptr @CRYPTO_zalloc(i64 noundef 72, ptr noundef nonnull @.str.4, i32 noundef 128) #8
  %.not.i = icmp eq ptr %6, null
  br i1 %.not.i, label %9, label %file_open_stream.exit

file_open_stream.exit:                            ; preds = %5
  %7 = getelementptr inbounds nuw i8, ptr %6, i64 16
  store i32 0, ptr %7, align 8, !tbaa !18
  store ptr %0, ptr %6, align 8, !tbaa !20
  %8 = getelementptr inbounds nuw i8, ptr %6, i64 24
  store ptr %3, ptr %8, align 8, !tbaa !10
  br label %11

9:                                                ; preds = %5
  tail call void @ERR_new() #8
  tail call void @ERR_set_debug(ptr noundef nonnull @.str.4, i32 noundef 157, ptr noundef nonnull @__func__.file_open_stream) #8
  tail call void (i32, i32, ptr, ...) @ERR_set_error(i32 noundef 57, i32 noundef 524345, ptr noundef null) #8
  %10 = tail call i32 @BIO_free(ptr noundef nonnull %3) #8
  br label %11

11:                                               ; preds = %file_open_stream.exit, %9, %2
  %.0 = phi ptr [ null, %2 ], [ null, %9 ], [ %6, %file_open_stream.exit ]
  ret ptr %.0
}